Certificate:
    Data:
        Version: 3 (0x2)
        Serial Number: 1 (0x1)
        Signature Algorithm: sha256WithRSAEncryption
        Issuer: DC=org, DC=cmpe272, O=SJSU cmpe272, OU=CMPE272 Signing CA, CN=CMPE272 Signing CA
        Validity
            Not Before: Nov 13 07:26:41 2022 GMT
            Not After : Nov 12 07:26:41 2024 GMT
        Subject: DC=org, DC=cmpe272, O=SJSU cmpe272, OU=IT, CN=securityhw.cmpe272.org
        Subject Public Key Info:
            Public Key Algorithm: rsaEncryption
                RSA Public-Key: (2048 bit)
                Modulus:
                    00:ac:3b:61:e4:5a:9f:07:67:d0:c4:56:2b:2e:65:
                    be:75:78:a5:f9:65:69:5a:d4:f9:64:04:21:a2:e7:
                    2e:2c:6a:cb:2c:7a:f7:c8:56:58:7c:bc:ac:0d:e2:
                    0a:a4:ce:1b:74:33:df:09:be:2e:a7:5b:7d:d0:4c:
                    87:06:bb:f6:00:c9:3e:11:c4:a8:88:ab:f6:ce:7c:
                    85:4b:2c:4f:ee:c0:f7:d9:9d:1e:dd:e2:f2:40:0d:
                    e7:86:f5:47:65:d3:3b:ef:16:54:4a:e1:13:c6:e5:
                    ff:bd:11:c8:9a:fd:b6:47:63:e0:bf:1b:12:eb:06:
                    52:83:41:25:54:0f:a1:58:a1:49:fb:1a:a9:d5:7f:
                    2a:f1:60:6c:5f:a5:4f:e1:1c:8b:64:79:73:9d:54:
                    5e:3c:57:66:bc:bf:01:12:34:60:4f:84:7b:92:f2:
                    3c:14:85:9d:03:e5:7c:b9:00:cd:cd:1b:bf:2c:45:
                    89:20:44:9a:5b:f1:b9:4e:01:bd:96:80:2b:b6:f8:
                    34:82:f0:d6:fa:f6:9e:1e:1b:4d:c4:a3:2e:df:f7:
                    48:b3:63:62:ba:32:97:d0:9b:07:b8:b1:22:0d:f8:
                    81:0a:da:b3:b3:95:4d:56:52:ba:8f:17:b0:cb:5f:
                    3a:62:62:ff:10:68:25:e5:ea:c7:c5:43:c3:7a:e5:
                    03:0b
                Exponent: 65537 (0x10001)
        X509v3 extensions:
            X509v3 Key Usage: critical
                Digital Signature, Key Encipherment
            X509v3 Basic Constraints: 
                CA:FALSE
            X509v3 Extended Key Usage: 
                TLS Web Server Authentication, TLS Web Client Authentication
            X509v3 Subject Key Identifier: 
                36:7E:03:F6:B8:94:19:BD:7B:79:21:54:12:50:FD:A0:50:10:52:AA
            X509v3 Authority Key Identifier: 
                keyid:0A:17:74:3A:22:DC:DB:1C:C4:E9:EA:4C:A2:34:D5:EF:96:4E:30:14

            X509v3 Subject Alternative Name: 
                DNS:securityhw.cmpe272.org
    Signature Algorithm: sha256WithRSAEncryption
         83:d3:de:8a:59:d2:1c:cc:c8:a5:d6:8e:17:54:9b:de:5e:7c:
         4f:3b:ac:97:69:8f:64:92:45:53:58:09:2d:e2:f9:5a:8c:c1:
         d5:70:4f:88:ae:02:5c:c6:d8:e7:4c:5e:68:76:37:e8:cb:96:
         72:9f:9d:d2:fc:74:af:2f:04:f2:6d:3b:7a:ef:a4:6a:ed:35:
         ab:4c:da:ad:3d:5a:b7:ac:46:4b:6a:c6:d0:6f:33:cf:2f:07:
         eb:76:9c:95:a5:f0:fe:3e:6c:48:07:4e:38:0c:54:67:44:fe:
         c3:71:29:d8:99:18:3e:0c:20:56:3f:60:17:85:93:f5:af:d6:
         e5:ad:3e:fa:d4:a2:c0:00:f7:80:19:81:81:58:8a:48:2d:d4:
         95:bb:ae:08:1c:6c:f0:07:02:6b:38:66:7c:d9:1f:57:cb:ee:
         9b:88:e9:0c:06:e6:ad:b0:cc:1d:10:a1:93:d2:58:24:eb:4f:
         2b:e2:ed:1e:40:aa:6d:7c:f1:69:ea:cc:fd:c5:9b:51:25:fb:
         0f:37:86:db:f6:61:87:4e:08:e5:16:60:9e:53:9f:d1:1f:75:
         f4:3f:ee:9f:e2:3e:0c:67:02:88:7b:01:e1:fa:cd:2b:2d:46:
         26:1b:23:03:a1:dd:c7:a3:ac:47:2e:c0:4e:f6:db:d1:fa:e2:
         5d:4d:10:12
-----BEGIN CERTIFICATE-----
MIIEDjCCAvagAwIBAgIBATANBgkqhkiG9w0BAQsFADB/MRMwEQYKCZImiZPyLGQB
GRYDb3JnMRcwFQYKCZImiZPyLGQBGRYHY21wZTI3MjEVMBMGA1UECgwMU0pTVSBj
bXBlMjcyMRswGQYDVQQLDBJDTVBFMjcyIFNpZ25pbmcgQ0ExGzAZBgNVBAMMEkNN
UEUyNzIgU2lnbmluZyBDQTAeFw0yMjExMTMwNzI2NDFaFw0yNDExMTIwNzI2NDFa
MHMxEzARBgoJkiaJk/IsZAEZFgNvcmcxFzAVBgoJkiaJk/IsZAEZFgdjbXBlMjcy
MRUwEwYDVQQKDAxTSlNVIGNtcGUyNzIxCzAJBgNVBAsMAklUMR8wHQYDVQQDDBZz
ZWN1cml0eWh3LmNtcGUyNzIub3JnMIIBIjANBgkqhkiG9w0BAQEFAAOCAQ8AMIIB
CgKCAQEArDth5FqfB2fQxFYrLmW+dXil+WVpWtT5ZAQhoucuLGrLLHr3yFZYfLys
DeIKpM4bdDPfCb4up1t90EyHBrv2AMk+EcSoiKv2znyFSyxP7sD32Z0e3eLyQA3n
hvVHZdM77xZUSuETxuX/vRHImv22R2PgvxsS6wZSg0ElVA+hWKFJ+xqp1X8q8WBs
X6VP4RyLZHlznVRePFdmvL8BEjRgT4R7kvI8FIWdA+V8uQDNzRu/LEWJIESaW/G5
TgG9loArtvg0gvDW+vaeHhtNxKMu3/dIs2NiujKX0JsHuLEiDfiBCtqzs5VNVlK6
jxewy186YmL/EGgl5erHxUPDeuUDCwIDAQABo4GgMIGdMA4GA1UdDwEB/wQEAwIF
oDAJBgNVHRMEAjAAMB0GA1UdJQQWMBQGCCsGAQUFBwMBBggrBgEFBQcDAjAdBgNV
HQ4EFgQUNn4D9riUGb17eSFUElD9oFAQUqowHwYDVR0jBBgwFoAUChd0OiLc2xzE
6epMojTV75ZOMBQwIQYDVR0RBBowGIIWc2VjdXJpdHlody5jbXBlMjcyLm9yZzAN
BgkqhkiG9w0BAQsFAAOCAQEAg9PeilnSHMzIpdaOF1Sb3l58Tzusl2mPZJJFU1gJ
LeL5WozB1XBPiK4CXMbY50xeaHY36MuWcp+d0vx0ry8E8m07eu+kau01q0zarT1a
t6xGS2rG0G8zzy8H63aclaXw/j5sSAdOOAxUZ0T+w3Ep2JkYPgwgVj9gF4WT9a/W
5a0++tSiwAD3gBmBgViKSC3UlbuuCBxs8AcCazhmfNkfV8vum4jpDAbmrbDMHRCh
k9JYJOtPK+LtHkCqbXzxaerM/cWbUSX7DzeG2/Zhh04I5RZgnlOf0R919D/un+I+
DGcCiHsB4frNKy1GJhsjA6Hdx6OsRy7ATvbb0friXU0QEg==
-----END CERTIFICATE-----
