Certificate:
    Data:
        Version: 3 (0x2)
        Serial Number: 1 (0x1)
        Signature Algorithm: sha256WithRSAEncryption
        Issuer: DC=org, DC=cmpe272, O=SJSU cmpe272, OU=CMPE272 Root CA, CN=CMPE272 Root CA
        Validity
            Not Before: Nov 13 07:21:34 2022 GMT
            Not After : Nov 12 07:21:34 2032 GMT
        Subject: DC=org, DC=cmpe272, O=SJSU cmpe272, OU=CMPE272 Root CA, CN=CMPE272 Root CA
        Subject Public Key Info:
            Public Key Algorithm: rsaEncryption
                RSA Public-Key: (2048 bit)
                Modulus:
                    00:a6:cc:ff:80:2d:50:3d:49:d9:da:90:c3:db:d4:
                    b8:7b:e4:5d:d5:50:d0:e7:9a:4a:b0:57:a3:be:0d:
                    68:46:3c:73:72:0a:3e:31:a9:d5:79:26:67:1b:16:
                    bf:1e:6b:a6:a1:ff:5e:97:d8:93:9c:2c:df:8d:73:
                    5e:54:e1:3d:05:07:95:ee:45:b2:f0:4f:4c:6f:70:
                    3b:94:1e:6b:48:d0:ba:55:d3:f5:2a:18:c5:43:71:
                    4e:4f:43:9e:10:c9:69:2f:b3:cb:cb:90:31:48:78:
                    e5:f3:d2:64:b4:d3:fd:5b:c9:69:c9:02:18:25:a2:
                    60:51:a2:b0:ed:31:ae:9e:0f:6e:43:25:8f:ca:40:
                    ee:84:58:20:13:33:bd:0c:18:4c:4e:5a:ef:bf:4b:
                    ca:5f:2f:b1:fa:9c:75:da:84:43:ac:f6:cc:76:53:
                    9f:ba:25:5e:6b:00:bd:4a:51:89:eb:d3:bb:a6:5d:
                    d7:13:21:6c:46:f7:d0:f0:5f:a5:ea:9c:8e:ea:9e:
                    27:4f:58:46:2c:41:12:08:d1:d7:8c:29:ff:38:57:
                    01:25:27:df:e7:45:bb:94:cb:40:89:f6:31:db:9b:
                    ef:05:f9:01:86:f0:2d:83:ac:51:7f:52:41:91:85:
                    ae:79:4c:68:f2:ad:fc:81:34:70:3b:15:bf:f5:2e:
                    8b:11
                Exponent: 65537 (0x10001)
        X509v3 extensions:
            X509v3 Key Usage: critical
                Certificate Sign, CRL Sign
            X509v3 Basic Constraints: critical
                CA:TRUE
            X509v3 Subject Key Identifier: 
                04:15:5F:2D:EF:40:91:BC:E5:50:C3:3F:D2:5E:38:B0:7E:18:F4:C5
            X509v3 Authority Key Identifier: 
                keyid:04:15:5F:2D:EF:40:91:BC:E5:50:C3:3F:D2:5E:38:B0:7E:18:F4:C5

    Signature Algorithm: sha256WithRSAEncryption
         4a:bd:b1:e4:44:3f:e4:8f:1f:01:ba:e9:f1:a1:6d:cb:b2:07:
         84:e3:fb:20:27:28:95:1c:b4:2a:61:5b:c5:02:5f:0a:2c:27:
         bc:d5:69:4f:dc:09:34:c2:74:ab:97:b7:af:7a:0e:3b:eb:75:
         74:4d:75:12:f6:7b:96:e3:b1:5d:16:b9:21:ae:75:d3:96:00:
         7a:64:23:0e:cc:1f:5e:58:9a:b1:57:6b:e3:88:d1:a9:56:f4:
         b1:7e:50:41:e4:d7:a1:80:f8:11:c0:90:3e:77:e4:e8:8a:d1:
         a6:bc:ff:df:63:50:24:51:31:40:5a:b3:67:c8:2b:9b:6d:27:
         db:1c:98:4d:42:17:5c:08:82:22:9c:9e:32:89:a1:bd:38:e8:
         00:03:a2:d5:39:c1:27:ea:5d:29:45:18:f8:46:85:84:0d:37:
         e1:e0:a8:7f:e9:f6:01:d7:2f:b3:32:48:50:7c:fc:0f:b9:4a:
         a6:c3:18:58:66:7d:77:b3:aa:c2:6a:0b:65:90:92:8d:77:1d:
         7f:c2:76:97:00:c0:44:d4:7c:9d:4c:15:e4:a9:c5:8f:b3:8d:
         c0:bc:71:04:d8:43:61:6e:a6:6e:cc:8c:bd:99:14:e3:48:3e:
         12:30:0c:0b:5b:00:19:59:dd:1d:55:ec:b9:c0:ec:0a:08:1c:
         7d:ca:84:62
-----BEGIN CERTIFICATE-----
MIID0DCCArigAwIBAgIBATANBgkqhkiG9w0BAQsFADB5MRMwEQYKCZImiZPyLGQB
GRYDb3JnMRcwFQYKCZImiZPyLGQBGRYHY21wZTI3MjEVMBMGA1UECgwMU0pTVSBj
bXBlMjcyMRgwFgYDVQQLDA9DTVBFMjcyIFJvb3QgQ0ExGDAWBgNVBAMMD0NNUEUy
NzIgUm9vdCBDQTAeFw0yMjExMTMwNzIxMzRaFw0zMjExMTIwNzIxMzRaMHkxEzAR
BgoJkiaJk/IsZAEZFgNvcmcxFzAVBgoJkiaJk/IsZAEZFgdjbXBlMjcyMRUwEwYD
VQQKDAxTSlNVIGNtcGUyNzIxGDAWBgNVBAsMD0NNUEUyNzIgUm9vdCBDQTEYMBYG
A1UEAwwPQ01QRTI3MiBSb290IENBMIIBIjANBgkqhkiG9w0BAQEFAAOCAQ8AMIIB
CgKCAQEApsz/gC1QPUnZ2pDD29S4e+Rd1VDQ55pKsFejvg1oRjxzcgo+ManVeSZn
Gxa/Hmumof9el9iTnCzfjXNeVOE9BQeV7kWy8E9Mb3A7lB5rSNC6VdP1KhjFQ3FO
T0OeEMlpL7PLy5AxSHjl89JktNP9W8lpyQIYJaJgUaKw7TGung9uQyWPykDuhFgg
EzO9DBhMTlrvv0vKXy+x+px12oRDrPbMdlOfuiVeawC9SlGJ69O7pl3XEyFsRvfQ
8F+l6pyO6p4nT1hGLEESCNHXjCn/OFcBJSff50W7lMtAifYx25vvBfkBhvAtg6xR
f1JBkYWueUxo8q38gTRwOxW/9S6LEQIDAQABo2MwYTAOBgNVHQ8BAf8EBAMCAQYw
DwYDVR0TAQH/BAUwAwEB/zAdBgNVHQ4EFgQUBBVfLe9AkbzlUMM/0l44sH4Y9MUw
HwYDVR0jBBgwFoAUBBVfLe9AkbzlUMM/0l44sH4Y9MUwDQYJKoZIhvcNAQELBQAD
ggEBAEq9seREP+SPHwG66fGhbcuyB4Tj+yAnKJUctCphW8UCXwosJ7zVaU/cCTTC
dKuXt696DjvrdXRNdRL2e5bjsV0WuSGuddOWAHpkIw7MH15YmrFXa+OI0alW9LF+
UEHk16GA+BHAkD535OiK0aa8/99jUCRRMUBas2fIK5ttJ9scmE1CF1wIgiKcnjKJ
ob046AADotU5wSfqXSlFGPhGhYQNN+HgqH/p9gHXL7MySFB8/A+5SqbDGFhmfXez
qsJqC2WQko13HX/CdpcAwETUfJ1MFeSpxY+zjcC8cQTYQ2Fupm7MjL2ZFONIPhIw
DAtbABlZ3R1V7LnA7AoIHH3KhGI=
-----END CERTIFICATE-----
